target datalayout = "e-m:e-p270:32:32-p271:32:32-p272:64:64-i64:64-i128:128-f80:128-n8:16:32:64-S128"
target triple = "x86_64-pc-linux-gnu"

%"struct.duckdb::MetadataHandle" = type { %"struct.duckdb::MetadataPointer", %"class.duckdb::BufferHandle" }
%"struct.duckdb::MetadataPointer" = type { i64 }
%"class.duckdb::BufferHandle" = type { %"class.duckdb::shared_ptr", %"class.duckdb::optional_ptr" }
%"class.duckdb::shared_ptr" = type { %"class.std::shared_ptr" }
%"class.std::shared_ptr" = type { %"class.std::__shared_ptr" }
%"class.std::__shared_ptr" = type { ptr, %"class.std::__shared_count" }
%"class.std::__shared_count" = type { ptr }
%"class.duckdb::optional_ptr" = type { ptr }
%"struct.duckdb::MetaBlockPointer" = type { i64, i32, i32 }
%"class.duckdb::optional_ptr.85" = type { ptr }
%"class.duckdb::MetadataReader" = type { %"class.duckdb::ReadStream", ptr, i32, %"struct.duckdb::MetadataHandle", %"struct.duckdb::MetadataPointer", i8, %"class.duckdb::optional_ptr.85", i64, i64, i64, i64 }
%"class.duckdb::ReadStream" = type { ptr }

; Function Attrs: mustprogress nounwind uwtable
define linkonce_odr void @_ZN6duckdb16MetaBlockPointerC2Emj(ptr noundef nonnull align 8 dereferenceable(16) %0, i64 noundef %1, i32 noundef %2) unnamed_addr #0 comdat align 2 {
  %4 = alloca ptr, align 8
  %5 = alloca i64, align 8
  %6 = alloca i32, align 4
  store ptr %0, ptr %4, align 8, !tbaa !125
  store i64 %1, ptr %5, align 8, !tbaa !16
  store i32 %2, ptr %6, align 4, !tbaa !124
  %7 = load ptr, ptr %4, align 8
  %8 = getelementptr inbounds nuw %"struct.duckdb::MetaBlockPointer", ptr %7, i32 0, i32 0
  %9 = load i64, ptr %5, align 8, !tbaa !16
  store i64 %9, ptr %8, align 8, !tbaa !127
  %10 = getelementptr inbounds nuw %"struct.duckdb::MetaBlockPointer", ptr %7, i32 0, i32 1
  %11 = load i32, ptr %6, align 4, !tbaa !124
  store i32 %11, ptr %10, align 8, !tbaa !129
  %12 = getelementptr inbounds nuw %"struct.duckdb::MetaBlockPointer", ptr %7, i32 0, i32 2
  store i32 0, ptr %12, align 4, !tbaa !130
  ret void
}

; Function Attrs: mustprogress uwtable
define { i64, i64 } @_ZN6duckdb15MetadataManager14GetDiskPointerERKNS_15MetadataPointerEj(ptr noundef nonnull align 8 dereferenceable(128) %0, ptr noundef nonnull align 8 dereferenceable(8) %1, i32 noundef %2) #2 align 2 {
  %4 = alloca %"struct.duckdb::MetaBlockPointer", align 8
  %5 = alloca ptr, align 8
  %6 = alloca ptr, align 8
  %7 = alloca i32, align 4
  %8 = alloca i64, align 8
  store ptr %0, ptr %5, align 8, !tbaa !3
  store ptr %1, ptr %6, align 8, !tbaa !104
  store i32 %2, ptr %7, align 4, !tbaa !124
  call void @llvm.lifetime.start.p0(i64 8, ptr %8) #19
  %9 = load ptr, ptr %6, align 8, !tbaa !104
  %10 = load i64, ptr %9, align 8
  %11 = and i64 %10, 72057594037927935
  store i64 %11, ptr %8, align 8, !tbaa !16
  %12 = load ptr, ptr %6, align 8, !tbaa !104
  %13 = load i64, ptr %12, align 8
  %14 = lshr i64 %13, 56
  %15 = trunc i64 %14 to i8
  %16 = zext i8 %15 to i64
  %17 = shl i64 %16, 56
  %18 = load i64, ptr %8, align 8, !tbaa !16
  %19 = or i64 %18, %17
  store i64 %19, ptr %8, align 8, !tbaa !16
  %20 = load i64, ptr %8, align 8, !tbaa !16
  %21 = load i32, ptr %7, align 4, !tbaa !124
  call void @_ZN6duckdb16MetaBlockPointerC2Emj(ptr noundef nonnull align 8 dereferenceable(16) %4, i64 noundef %20, i32 noundef %21)
  call void @llvm.lifetime.end.p0(i64 8, ptr %8) #19
  %22 = load { i64, i64 }, ptr %4, align 8
  ret { i64, i64 } %22
}

; Function Attrs: mustprogress nounwind uwtable
define linkonce_odr noundef i32 @_ZN6duckdb17UnsafeNumericCastIjmvEET_T0_(i64 noundef %0) #0 comdat {
  %2 = alloca i64, align 8
  store i64 %0, ptr %2, align 8, !tbaa !16
  %3 = load i64, ptr %2, align 8, !tbaa !16
  %4 = trunc i64 %3 to i32
  ret i32 %4
}

; Function Attrs: mustprogress uwtable
define { i64, i64 } @_ZN6duckdb14MetadataReader19GetMetaBlockPointerEv(ptr noundef nonnull align 8 dereferenceable(112) %0) #2 align 2 {
  %2 = alloca %"struct.duckdb::MetaBlockPointer", align 8
  %3 = alloca ptr, align 8
  store ptr %0, ptr %3, align 8, !tbaa !202
  %4 = load ptr, ptr %3, align 8
  %5 = getelementptr inbounds nuw %"class.duckdb::MetadataReader", ptr %4, i32 0, i32 1
  %6 = load ptr, ptr %5, align 8, !tbaa !220
  %7 = getelementptr inbounds nuw %"class.duckdb::MetadataReader", ptr %4, i32 0, i32 3
  %8 = getelementptr inbounds nuw %"struct.duckdb::MetadataHandle", ptr %7, i32 0, i32 0
  %9 = getelementptr inbounds nuw %"class.duckdb::MetadataReader", ptr %4, i32 0, i32 8
  %10 = load i64, ptr %9, align 8, !tbaa !217
  %11 = call noundef i32 @_ZN6duckdb17UnsafeNumericCastIjmvEET_T0_(i64 noundef %10)
  %12 = call { i64, i64 } @_ZN6duckdb15MetadataManager14GetDiskPointerERKNS_15MetadataPointerEj(ptr noundef nonnull align 8 dereferenceable(128) %6, ptr noundef nonnull align 8 dereferenceable(8) %8, i32 noundef %11)
  %13 = getelementptr inbounds nuw { i64, i64 }, ptr %2, i32 0, i32 0
  %14 = extractvalue { i64, i64 } %12, 0
  store i64 %14, ptr %13, align 8
  %15 = getelementptr inbounds nuw { i64, i64 }, ptr %2, i32 0, i32 1
  %16 = extractvalue { i64, i64 } %12, 1
  store i64 %16, ptr %15, align 8
  %17 = load { i64, i64 }, ptr %2, align 8
  ret { i64, i64 } %17
}