; Function Attrs: mustprogress nofree norecurse nosync nounwind willreturn memory(argmem: read) uwtable
define { i64, i64 } @_ZN6duckdb14MetadataReader19GetMetaBlockPointerEv(ptr noundef nonnull readonly align 8 captures(none) dereferenceable(112) %0) local_unnamed_addr #10 align 2 {
  %2 = getelementptr inbounds nuw i8, ptr %0, i64 24
  %3 = getelementptr inbounds nuw i8, ptr %0, i64 88
  %4 = load i64, ptr %3, align 8, !tbaa !206
  %5 = load i64, ptr %2, align 8
  %.fca.0.insert.i = insertvalue { i64, i64 } poison, i64 %5, 0
  %.sroa.2.8.insert.ext.i = and i64 %4, 4294967295
  %.fca.1.insert.i = insertvalue { i64, i64 } %.fca.0.insert.i, i64 %.sroa.2.8.insert.ext.i, 1
  ret { i64, i64 } %.fca.1.insert.i
}